; Function Attrs: mustprogress uwtable
define noundef zeroext i1 @_ZN7rocksdb13DBWithTTLImpl7IsStaleERKNS_5SliceEiPNS_11SystemClockE(ptr nocapture noundef nonnull readonly align 8 dereferenceable(16) %value, i32 noundef %ttl, ptr noundef %clock) local_unnamed_addr #2 align 2 personality ptr @__gxx_personality_v0 {
entry:
  %curtime = alloca i64, align 8
  %ref.tmp = alloca %"class.rocksdb::Status", align 8
  %cmp = icmp slt i32 %ttl, 1
  br i1 %cmp, label %return, label %invoke.cont

invoke.cont:                                      ; preds = %entry
  %vtable = load ptr, ptr %clock, align 8
  %vfn = getelementptr inbounds i8, ptr %vtable, i64 200
  %0 = load ptr, ptr %vfn, align 8
  call void %0(ptr nonnull sret(%"class.rocksdb::Status") align 8 %ref.tmp, ptr noundef nonnull align 8 dereferenceable(32) %clock, ptr noundef nonnull %curtime)
  %1 = load i8, ptr %ref.tmp, align 8
  %cmp.i = icmp eq i8 %1, 0
  %state_.i = getelementptr inbounds i8, ptr %ref.tmp, i64 8
  %2 = load ptr, ptr %state_.i, align 8
  %cmp.not.i.i = icmp eq ptr %2, null
  br i1 %cmp.not.i.i, label %_ZN7rocksdb6StatusD2Ev.exit, label %_ZNKSt14default_deleteIA_KcEclIS0_EENSt9enable_ifIXsr14is_convertibleIPA_T_PS1_EE5valueEvE4typeEPS5_.exit.i.i

_ZNKSt14default_deleteIA_KcEclIS0_EENSt9enable_ifIXsr14is_convertibleIPA_T_PS1_EE5valueEvE4typeEPS5_.exit.i.i: ; preds = %invoke.cont
  call void @_ZdaPv(ptr noundef nonnull %2) #20
  br label %_ZN7rocksdb6StatusD2Ev.exit

_ZN7rocksdb6StatusD2Ev.exit:                      ; preds = %invoke.cont, %_ZNKSt14default_deleteIA_KcEclIS0_EENSt9enable_ifIXsr14is_convertibleIPA_T_PS1_EE5valueEvE4typeEPS5_.exit.i.i
  store ptr null, ptr %state_.i, align 8
  br i1 %cmp.i, label %if.end2, label %return

if.end2:                                          ; preds = %_ZN7rocksdb6StatusD2Ev.exit
  %3 = load ptr, ptr %value, align 8
  %size_.i = getelementptr inbounds i8, ptr %value, i64 8
  %4 = load i64, ptr %size_.i, align 8
  %add.ptr = getelementptr inbounds i8, ptr %3, i64 %4
  %add.ptr5 = getelementptr inbounds i8, ptr %add.ptr, i64 -4
  %result.0.copyload.i = load i32, ptr %add.ptr5, align 1
  %conv = zext i32 %result.0.copyload.i to i64
  %conv7 = zext nneg i32 %ttl to i64
  %add = add nuw nsw i64 %conv, %conv7
  %5 = load i64, ptr %curtime, align 8
  %cmp8 = icmp slt i64 %add, %5
  br label %return

return:                                           ; preds = %_ZN7rocksdb6StatusD2Ev.exit, %entry, %if.end2
  %retval.0 = phi i1 [ %cmp8, %if.end2 ], [ false, %entry ], [ false, %_ZN7rocksdb6StatusD2Ev.exit ]
  ret i1 %retval.0
}